; Listing generated by Microsoft (R) Optimizing Compiler Version 19.16.27032.1 

	TITLE	F:\UOMediaPlayerV3\UOMediaPlayerV3\Release\moc\moc_UOMediaPlayerV3.cpp
	.686P
	.XMM
	include listing.inc
	.model	flat

INCLUDELIB MSVCRT
INCLUDELIB OLDNAMES

EXTRN	__imp_?staticMetaObject@QMainWindow@@2UQMetaObject@@B:BYTE
CONST	SEGMENT
?qt_meta_stringdata_UOMediaPlayerV3@@3Uqt_meta_stringdata_UOMediaPlayerV3_t@@B DD 0ffffffffH ; qt_meta_stringdata_UOMediaPlayerV3
	DD	0fH
	DD	00H
	DD	0180H
	DD	0ffffffffH
	DD	0fH
	DD	00H
	DD	0180H
	DD	0ffffffffH
	DD	00H
	DD	00H
	DD	0180H
	DD	0ffffffffH
	DD	014H
	DD	00H
	DD	0171H
	DD	0ffffffffH
	DD	0dH
	DD	00H
	DD	0176H
	DD	0ffffffffH
	DD	0eH
	DD	00H
	DD	0174H
	DD	0ffffffffH
	DD	0dH
	DD	00H
	DD	0173H
	DD	0ffffffffH
	DD	014H
	DD	00H
	DD	0171H
	DD	0ffffffffH
	DD	014H
	DD	00H
	DD	0176H
	DD	0ffffffffH
	DD	011H
	DD	00H
	DD	017bH
	DD	0ffffffffH
	DD	013H
	DD	00H
	DD	017dH
	DD	0ffffffffH
	DD	0dH
	DD	00H
	DD	0181H
	DD	0ffffffffH
	DD	010H
	DD	00H
	DD	017fH
	DD	0ffffffffH
	DD	012H
	DD	00H
	DD	0180H
	DD	0ffffffffH
	DD	013H
	DD	00H
	DD	0183H
	DD	0ffffffffH
	DD	0fH
	DD	00H
	DD	0187H
	DD	0ffffffffH
	DD	015H
	DD	00H
	DD	0187H
	DD	0ffffffffH
	DD	0dH
	DD	00H
	DD	018dH
	DD	0ffffffffH
	DD	013H
	DD	00H
	DD	018bH
	DD	0ffffffffH
	DD	015H
	DD	00H
	DD	018fH
	DD	0ffffffffH
	DD	016H
	DD	00H
	DD	0195H
	DD	0ffffffffH
	DD	017H
	DD	00H
	DD	019cH
	DD	0ffffffffH
	DD	0eH
	DD	00H
	DD	01a4H
	DD	0ffffffffH
	DD	0fH
	DD	00H
	DD	01a3H
	DB	055H
	DB	04fH
	DB	04dH
	DB	065H
	DB	064H
	DB	069H
	DB	061H
	DB	050H
	DB	06cH
	DB	061H
	DB	079H
	DB	065H
	DB	072H
	DB	056H
	DB	033H
	DB	00H
	DB	055H
	DB	049H
	DB	043H
	DB	06cH
	DB	069H
	DB	063H
	DB	06bH
	DB	065H
	DB	064H
	DB	04fH
	DB	070H
	DB	065H
	DB	06eH
	DB	056H
	DB	041H
	DB	00H
	DB	00H
	DB	055H
	DB	049H
	DB	043H
	DB	06cH
	DB	069H
	DB	063H
	DB	06bH
	DB	065H
	DB	064H
	DB	04fH
	DB	070H
	DB	065H
	DB	06eH
	DB	050H
	DB	069H
	DB	063H
	DB	074H
	DB	075H
	DB	072H
	DB	065H
	DB	00H
	DB	055H
	DB	049H
	DB	043H
	DB	06cH
	DB	069H
	DB	063H
	DB	06bH
	DB	065H
	DB	064H
	DB	050H
	DB	06cH
	DB	061H
	DB	079H
	DB	00H
	DB	055H
	DB	049H
	DB	043H
	DB	06cH
	DB	069H
	DB	063H
	DB	06bH
	DB	065H
	DB	064H
	DB	050H
	DB	061H
	DB	075H
	DB	073H
	DB	065H
	DB	00H
	DB	055H
	DB	049H
	DB	043H
	DB	06cH
	DB	069H
	DB	063H
	DB	06bH
	DB	065H
	DB	064H
	DB	053H
	DB	074H
	DB	06fH
	DB	070H
	DB	00H
	DB	055H
	DB	049H
	DB	043H
	DB	06cH
	DB	069H
	DB	063H
	DB	06bH
	DB	065H
	DB	064H
	DB	046H
	DB	061H
	DB	073H
	DB	074H
	DB	046H
	DB	06fH
	DB	072H
	DB	077H
	DB	061H
	DB	072H
	DB	064H
	DB	00H
	DB	055H
	DB	049H
	DB	043H
	DB	06cH
	DB	069H
	DB	063H
	DB	06bH
	DB	065H
	DB	064H
	DB	046H
	DB	061H
	DB	073H
	DB	074H
	DB	052H
	DB	065H
	DB	076H
	DB	065H
	DB	072H
	DB	073H
	DB	065H
	DB	00H
	DB	055H
	DB	049H
	DB	043H
	DB	06cH
	DB	069H
	DB	063H
	DB	06bH
	DB	065H
	DB	064H
	DB	056H
	DB	06fH
	DB	06cH
	DB	075H
	DB	06dH
	DB	065H
	DB	055H
	DB	070H
	DB	00H
	DB	055H
	DB	049H
	DB	043H
	DB	06cH
	DB	069H
	DB	063H
	DB	06bH
	DB	065H
	DB	064H
	DB	056H
	DB	06fH
	DB	06cH
	DB	075H
	DB	06dH
	DB	065H
	DB	044H
	DB	06fH
	DB	077H
	DB	06eH
	DB	00H
	DB	055H
	DB	049H
	DB	043H
	DB	06cH
	DB	069H
	DB	063H
	DB	06bH
	DB	065H
	DB	064H
	DB	04dH
	DB	075H
	DB	074H
	DB	065H
	DB	00H
	DB	055H
	DB	049H
	DB	043H
	DB	06cH
	DB	069H
	DB	063H
	DB	06bH
	DB	065H
	DB	064H
	DB	053H
	DB	070H
	DB	065H
	DB	065H
	DB	064H
	DB	055H
	DB	070H
	DB	00H
	DB	055H
	DB	049H
	DB	043H
	DB	06cH
	DB	069H
	DB	063H
	DB	06bH
	DB	065H
	DB	064H
	DB	053H
	DB	070H
	DB	065H
	DB	065H
	DB	064H
	DB	044H
	DB	06fH
	DB	077H
	DB	06eH
	DB	00H
	DB	055H
	DB	049H
	DB	043H
	DB	06cH
	DB	069H
	DB	063H
	DB	06bH
	DB	065H
	DB	064H
	DB	046H
	DB	075H
	DB	06cH
	DB	06cH
	DB	053H
	DB	063H
	DB	072H
	DB	065H
	DB	065H
	DB	06eH
	DB	00H
	DB	055H
	DB	049H
	DB	043H
	DB	06cH
	DB	069H
	DB	063H
	DB	06bH
	DB	065H
	DB	064H
	DB	04fH
	DB	075H
	DB	074H
	DB	070H
	DB	075H
	DB	074H
	DB	00H
	DB	055H
	DB	049H
	DB	043H
	DB	06cH
	DB	069H
	DB	063H
	DB	06bH
	DB	065H
	DB	064H
	DB	043H
	DB	068H
	DB	061H
	DB	06eH
	DB	067H
	DB	065H
	DB	046H
	DB	06fH
	DB	072H
	DB	06dH
	DB	061H
	DB	074H
	DB	00H
	DB	055H
	DB	049H
	DB	043H
	DB	06cH
	DB	069H
	DB	063H
	DB	06bH
	DB	065H
	DB	064H
	DB	045H
	DB	064H
	DB	069H
	DB	074H
	DB	00H
	DB	055H
	DB	049H
	DB	043H
	DB	06cH
	DB	069H
	DB	063H
	DB	06bH
	DB	065H
	DB	064H
	DB	050H
	DB	072H
	DB	069H
	DB	06eH
	DB	074H
	DB	046H
	DB	061H
	DB	072H
	DB	06dH
	DB	065H
	DB	00H
	DB	055H
	DB	049H
	DB	043H
	DB	06cH
	DB	069H
	DB	063H
	DB	06bH
	DB	065H
	DB	064H
	DB	050H
	DB	06cH
	DB	061H
	DB	079H
	DB	053H
	DB	065H
	DB	074H
	DB	074H
	DB	069H
	DB	06eH
	DB	067H
	DB	073H
	DB	00H
	DB	055H
	DB	049H
	DB	043H
	DB	06cH
	DB	069H
	DB	063H
	DB	06bH
	DB	065H
	DB	064H
	DB	049H
	DB	06dH
	DB	061H
	DB	067H
	DB	065H
	DB	053H
	DB	065H
	DB	074H
	DB	074H
	DB	069H
	DB	06eH
	DB	067H
	DB	073H
	DB	00H
	DB	055H
	DB	049H
	DB	043H
	DB	06cH
	DB	069H
	DB	063H
	DB	06bH
	DB	065H
	DB	064H
	DB	04fH
	DB	075H
	DB	074H
	DB	070H
	DB	075H
	DB	074H
	DB	053H
	DB	065H
	DB	074H
	DB	074H
	DB	069H
	DB	06eH
	DB	067H
	DB	073H
	DB	00H
	DB	055H
	DB	049H
	DB	043H
	DB	06cH
	DB	069H
	DB	063H
	DB	06bH
	DB	065H
	DB	064H
	DB	041H
	DB	062H
	DB	06fH
	DB	075H
	DB	074H
	DB	00H
	DB	055H
	DB	049H
	DB	043H
	DB	06cH
	DB	069H
	DB	063H
	DB	06bH
	DB	065H
	DB	064H
	DB	04fH
	DB	053H
	DB	049H
	DB	06eH
	DB	066H
	DB	06fH
	DB	00H
	ORG $+1
	ORG $+4
?qt_meta_data_UOMediaPlayerV3@@3QBIB DD 08H		; qt_meta_data_UOMediaPlayerV3
	DD	00H
	DD	00H
	DD	00H
	DD	016H
	DD	0eH
	DD	00H
	DD	00H
	DD	00H
	DD	00H
	DD	00H
	DD	00H
	DD	00H
	DD	00H
	DD	01H
	DD	00H
	DD	07cH
	DD	02H
	DD	08H
	DD	03H
	DD	00H
	DD	07dH
	DD	02H
	DD	08H
	DD	04H
	DD	00H
	DD	07eH
	DD	02H
	DD	08H
	DD	05H
	DD	00H
	DD	07fH
	DD	02H
	DD	08H
	DD	06H
	DD	00H
	DD	080H
	DD	02H
	DD	08H
	DD	07H
	DD	00H
	DD	081H
	DD	02H
	DD	08H
	DD	08H
	DD	00H
	DD	082H
	DD	02H
	DD	08H
	DD	09H
	DD	00H
	DD	083H
	DD	02H
	DD	08H
	DD	0aH
	DD	00H
	DD	084H
	DD	02H
	DD	08H
	DD	0bH
	DD	00H
	DD	085H
	DD	02H
	DD	08H
	DD	0cH
	DD	00H
	DD	086H
	DD	02H
	DD	08H
	DD	0dH
	DD	00H
	DD	087H
	DD	02H
	DD	08H
	DD	0eH
	DD	00H
	DD	088H
	DD	02H
	DD	08H
	DD	0fH
	DD	00H
	DD	089H
	DD	02H
	DD	08H
	DD	010H
	DD	00H
	DD	08aH
	DD	02H
	DD	08H
	DD	011H
	DD	00H
	DD	08bH
	DD	02H
	DD	08H
	DD	012H
	DD	00H
	DD	08cH
	DD	02H
	DD	08H
	DD	013H
	DD	00H
	DD	08dH
	DD	02H
	DD	08H
	DD	014H
	DD	00H
	DD	08eH
	DD	02H
	DD	08H
	DD	015H
	DD	00H
	DD	08fH
	DD	02H
	DD	08H
	DD	016H
	DD	00H
	DD	090H
	DD	02H
	DD	08H
	DD	017H
	DD	00H
	DD	091H
	DD	02H
	DD	08H
	DD	02bH
	DD	02bH
	DD	02bH
	DD	02bH
	DD	02bH
	DD	02bH
	DD	02bH
	DD	02bH
	DD	02bH
	DD	02bH
	DD	02bH
	DD	02bH
	DD	02bH
	DD	02bH
	DD	02bH
	DD	02bH
	DD	02bH
	DD	02bH
	DD	02bH
	DD	02bH
	DD	02bH
	DD	02bH
	DD	00H
CONST	ENDS
PUBLIC	?metaObject@UOMediaPlayerV3@@UBEPBUQMetaObject@@XZ ; UOMediaPlayerV3::metaObject
PUBLIC	?qt_metacast@UOMediaPlayerV3@@UAEPAXPBD@Z	; UOMediaPlayerV3::qt_metacast
PUBLIC	?qt_metacall@UOMediaPlayerV3@@UAEHW4Call@QMetaObject@@HPAPAX@Z ; UOMediaPlayerV3::qt_metacall
PUBLIC	?qt_static_metacall@UOMediaPlayerV3@@CAXPAVQObject@@W4Call@QMetaObject@@HPAPAX@Z ; UOMediaPlayerV3::qt_static_metacall
PUBLIC	?staticMetaObject@UOMediaPlayerV3@@2UQMetaObject@@B ; UOMediaPlayerV3::staticMetaObject
EXTRN	__imp_?dynamicMetaObject@QObjectData@@QBEPAUQMetaObject@@XZ:PROC
EXTRN	__imp_?qt_metacast@QMainWindow@@UAEPAXPBD@Z:PROC
EXTRN	__imp_?qt_metacall@QMainWindow@@UAEHW4Call@QMetaObject@@HPAPAX@Z:PROC
EXTRN	?UIClickedOpenVA@UOMediaPlayerV3@@AAEXXZ:PROC	; UOMediaPlayerV3::UIClickedOpenVA
EXTRN	?UIClickedOpenPicture@UOMediaPlayerV3@@AAEXXZ:PROC ; UOMediaPlayerV3::UIClickedOpenPicture
EXTRN	?UIClickedPlay@UOMediaPlayerV3@@AAEXXZ:PROC	; UOMediaPlayerV3::UIClickedPlay
EXTRN	?UIClickedPause@UOMediaPlayerV3@@AAEXXZ:PROC	; UOMediaPlayerV3::UIClickedPause
EXTRN	?UIClickedStop@UOMediaPlayerV3@@AAEXXZ:PROC	; UOMediaPlayerV3::UIClickedStop
EXTRN	?UIClickedFastForward@UOMediaPlayerV3@@AAEXXZ:PROC ; UOMediaPlayerV3::UIClickedFastForward
EXTRN	?UIClickedFastReverse@UOMediaPlayerV3@@AAEXXZ:PROC ; UOMediaPlayerV3::UIClickedFastReverse
EXTRN	?UIClickedVolumeUp@UOMediaPlayerV3@@AAEXXZ:PROC	; UOMediaPlayerV3::UIClickedVolumeUp
EXTRN	?UIClickedVolumeDown@UOMediaPlayerV3@@AAEXXZ:PROC ; UOMediaPlayerV3::UIClickedVolumeDown
EXTRN	?UIClickedMute@UOMediaPlayerV3@@AAEXXZ:PROC	; UOMediaPlayerV3::UIClickedMute
EXTRN	?UIClickedSpeedUp@UOMediaPlayerV3@@AAEXXZ:PROC	; UOMediaPlayerV3::UIClickedSpeedUp
EXTRN	?UIClickedSpeedDown@UOMediaPlayerV3@@AAEXXZ:PROC ; UOMediaPlayerV3::UIClickedSpeedDown
EXTRN	?UIClickedFullScreen@UOMediaPlayerV3@@AAEXXZ:PROC ; UOMediaPlayerV3::UIClickedFullScreen
EXTRN	?UIClickedOutput@UOMediaPlayerV3@@AAEXXZ:PROC	; UOMediaPlayerV3::UIClickedOutput
EXTRN	?UIClickedChangeFormat@UOMediaPlayerV3@@AAEXXZ:PROC ; UOMediaPlayerV3::UIClickedChangeFormat
EXTRN	?UIClickedEdit@UOMediaPlayerV3@@AAEXXZ:PROC	; UOMediaPlayerV3::UIClickedEdit
EXTRN	?UIClickedPrintFarme@UOMediaPlayerV3@@AAEXXZ:PROC ; UOMediaPlayerV3::UIClickedPrintFarme
EXTRN	?UIClickedPlaySettings@UOMediaPlayerV3@@AAEXXZ:PROC ; UOMediaPlayerV3::UIClickedPlaySettings
EXTRN	?UIClickedImageSettings@UOMediaPlayerV3@@AAEXXZ:PROC ; UOMediaPlayerV3::UIClickedImageSettings
EXTRN	?UIClickedOutputSettings@UOMediaPlayerV3@@AAEXXZ:PROC ; UOMediaPlayerV3::UIClickedOutputSettings
EXTRN	?UIClickedAbout@UOMediaPlayerV3@@AAEXXZ:PROC	; UOMediaPlayerV3::UIClickedAbout
EXTRN	?UIClickedOSInfo@UOMediaPlayerV3@@AAEXXZ:PROC	; UOMediaPlayerV3::UIClickedOSInfo
CRT$XCU	SEGMENT
??staticMetaObject$initializer$@UOMediaPlayerV3@@2P6AXXZA@@3P6AXXZA DD FLAT:??__E?staticMetaObject@UOMediaPlayerV3@@2UQMetaObject@@B@@YAXXZ ; ??staticMetaObject$initializer$@UOMediaPlayerV3@@2P6AXXZA@@3P6AXXZA
CRT$XCU	ENDS
_DATA	SEGMENT
?staticMetaObject@UOMediaPlayerV3@@2UQMetaObject@@B DB 4 DUP(00H) ; UOMediaPlayerV3::staticMetaObject
	DD	FLAT:?qt_meta_stringdata_UOMediaPlayerV3@@3Uqt_meta_stringdata_UOMediaPlayerV3_t@@B
	DD	FLAT:?qt_meta_data_UOMediaPlayerV3@@3QBIB
	DD	FLAT:?qt_static_metacall@UOMediaPlayerV3@@CAXPAVQObject@@W4Call@QMetaObject@@HPAPAX@Z
	DD	00H
	DD	00H
_DATA	ENDS
; Function compile flags: /Ogtp
;	COMDAT ??__E?staticMetaObject@UOMediaPlayerV3@@2UQMetaObject@@B@@YAXXZ
text$di	SEGMENT
??__E?staticMetaObject@UOMediaPlayerV3@@2UQMetaObject@@B@@YAXXZ PROC ; `dynamic initializer for 'UOMediaPlayerV3::staticMetaObject'', COMDAT
; File f:\uomediaplayerv3\uomediaplayerv3\release\moc\moc_uomediaplayerv3.cpp
; Line 174
	mov	eax, DWORD PTR __imp_?staticMetaObject@QMainWindow@@2UQMetaObject@@B
	mov	DWORD PTR ?staticMetaObject@UOMediaPlayerV3@@2UQMetaObject@@B, eax
; Line 179
	ret	0
??__E?staticMetaObject@UOMediaPlayerV3@@2UQMetaObject@@B@@YAXXZ ENDP ; `dynamic initializer for 'UOMediaPlayerV3::staticMetaObject''
text$di	ENDS
; Function compile flags: /Ogtp
;	COMDAT ?qt_static_metacall@UOMediaPlayerV3@@CAXPAVQObject@@W4Call@QMetaObject@@HPAPAX@Z
_TEXT	SEGMENT
__o$ = 8						; size = 4
__c$ = 12						; size = 4
__id$ = 16						; size = 4
__a$ = 20						; size = 4
?qt_static_metacall@UOMediaPlayerV3@@CAXPAVQObject@@W4Call@QMetaObject@@HPAPAX@Z PROC ; UOMediaPlayerV3::qt_static_metacall, COMDAT
; File f:\uomediaplayerv3\uomediaplayerv3\release\moc\moc_uomediaplayerv3.cpp
; Line 140
	push	ebp
	mov	ebp, esp
; Line 141
	cmp	DWORD PTR __c$[ebp], 0
	jne	$LN27@qt_static_
; Line 144
	mov	eax, DWORD PTR __id$[ebp]
	cmp	eax, 21					; 00000015H
	ja	$LN27@qt_static_
	jmp	DWORD PTR $LN32@qt_static_[eax*4]
$LN5@qt_static_:
; Line 145
	mov	ecx, DWORD PTR __o$[ebp]
; Line 171
	pop	ebp
; Line 145
	jmp	?UIClickedOpenVA@UOMediaPlayerV3@@AAEXXZ ; UOMediaPlayerV3::UIClickedOpenVA
$LN6@qt_static_:
; Line 146
	mov	ecx, DWORD PTR __o$[ebp]
; Line 171
	pop	ebp
; Line 146
	jmp	?UIClickedOpenPicture@UOMediaPlayerV3@@AAEXXZ ; UOMediaPlayerV3::UIClickedOpenPicture
$LN7@qt_static_:
; Line 147
	mov	ecx, DWORD PTR __o$[ebp]
; Line 171
	pop	ebp
; Line 147
	jmp	?UIClickedPlay@UOMediaPlayerV3@@AAEXXZ	; UOMediaPlayerV3::UIClickedPlay
$LN8@qt_static_:
; Line 148
	mov	ecx, DWORD PTR __o$[ebp]
; Line 171
	pop	ebp
; Line 148
	jmp	?UIClickedPause@UOMediaPlayerV3@@AAEXXZ	; UOMediaPlayerV3::UIClickedPause
$LN9@qt_static_:
; Line 149
	mov	ecx, DWORD PTR __o$[ebp]
; Line 171
	pop	ebp
; Line 149
	jmp	?UIClickedStop@UOMediaPlayerV3@@AAEXXZ	; UOMediaPlayerV3::UIClickedStop
$LN10@qt_static_:
; Line 150
	mov	ecx, DWORD PTR __o$[ebp]
; Line 171
	pop	ebp
; Line 150
	jmp	?UIClickedFastForward@UOMediaPlayerV3@@AAEXXZ ; UOMediaPlayerV3::UIClickedFastForward
$LN11@qt_static_:
; Line 151
	mov	ecx, DWORD PTR __o$[ebp]
; Line 171
	pop	ebp
; Line 151
	jmp	?UIClickedFastReverse@UOMediaPlayerV3@@AAEXXZ ; UOMediaPlayerV3::UIClickedFastReverse
$LN12@qt_static_:
; Line 152
	mov	ecx, DWORD PTR __o$[ebp]
; Line 171
	pop	ebp
; Line 152
	jmp	?UIClickedVolumeUp@UOMediaPlayerV3@@AAEXXZ ; UOMediaPlayerV3::UIClickedVolumeUp
$LN13@qt_static_:
; Line 153
	mov	ecx, DWORD PTR __o$[ebp]
; Line 171
	pop	ebp
; Line 153
	jmp	?UIClickedVolumeDown@UOMediaPlayerV3@@AAEXXZ ; UOMediaPlayerV3::UIClickedVolumeDown
$LN14@qt_static_:
; Line 154
	mov	ecx, DWORD PTR __o$[ebp]
; Line 171
	pop	ebp
; Line 154
	jmp	?UIClickedMute@UOMediaPlayerV3@@AAEXXZ	; UOMediaPlayerV3::UIClickedMute
$LN15@qt_static_:
; Line 155
	mov	ecx, DWORD PTR __o$[ebp]
; Line 171
	pop	ebp
; Line 155
	jmp	?UIClickedSpeedUp@UOMediaPlayerV3@@AAEXXZ ; UOMediaPlayerV3::UIClickedSpeedUp
$LN16@qt_static_:
; Line 156
	mov	ecx, DWORD PTR __o$[ebp]
; Line 171
	pop	ebp
; Line 156
	jmp	?UIClickedSpeedDown@UOMediaPlayerV3@@AAEXXZ ; UOMediaPlayerV3::UIClickedSpeedDown
$LN17@qt_static_:
; Line 157
	mov	ecx, DWORD PTR __o$[ebp]
; Line 171
	pop	ebp
; Line 157
	jmp	?UIClickedFullScreen@UOMediaPlayerV3@@AAEXXZ ; UOMediaPlayerV3::UIClickedFullScreen
$LN18@qt_static_:
; Line 158
	mov	ecx, DWORD PTR __o$[ebp]
; Line 171
	pop	ebp
; Line 158
	jmp	?UIClickedOutput@UOMediaPlayerV3@@AAEXXZ ; UOMediaPlayerV3::UIClickedOutput
$LN19@qt_static_:
; Line 159
	mov	ecx, DWORD PTR __o$[ebp]
; Line 171
	pop	ebp
; Line 159
	jmp	?UIClickedChangeFormat@UOMediaPlayerV3@@AAEXXZ ; UOMediaPlayerV3::UIClickedChangeFormat
$LN20@qt_static_:
; Line 160
	mov	ecx, DWORD PTR __o$[ebp]
; Line 171
	pop	ebp
; Line 160
	jmp	?UIClickedEdit@UOMediaPlayerV3@@AAEXXZ	; UOMediaPlayerV3::UIClickedEdit
$LN21@qt_static_:
; Line 161
	mov	ecx, DWORD PTR __o$[ebp]
; Line 171
	pop	ebp
; Line 161
	jmp	?UIClickedPrintFarme@UOMediaPlayerV3@@AAEXXZ ; UOMediaPlayerV3::UIClickedPrintFarme
$LN22@qt_static_:
; Line 162
	mov	ecx, DWORD PTR __o$[ebp]
; Line 171
	pop	ebp
; Line 162
	jmp	?UIClickedPlaySettings@UOMediaPlayerV3@@AAEXXZ ; UOMediaPlayerV3::UIClickedPlaySettings
$LN23@qt_static_:
; Line 163
	mov	ecx, DWORD PTR __o$[ebp]
; Line 171
	pop	ebp
; Line 163
	jmp	?UIClickedImageSettings@UOMediaPlayerV3@@AAEXXZ ; UOMediaPlayerV3::UIClickedImageSettings
$LN24@qt_static_:
; Line 164
	mov	ecx, DWORD PTR __o$[ebp]
; Line 171
	pop	ebp
; Line 164
	jmp	?UIClickedOutputSettings@UOMediaPlayerV3@@AAEXXZ ; UOMediaPlayerV3::UIClickedOutputSettings
$LN25@qt_static_:
; Line 165
	mov	ecx, DWORD PTR __o$[ebp]
; Line 171
	pop	ebp
; Line 165
	jmp	?UIClickedAbout@UOMediaPlayerV3@@AAEXXZ	; UOMediaPlayerV3::UIClickedAbout
$LN26@qt_static_:
; Line 166
	mov	ecx, DWORD PTR __o$[ebp]
; Line 171
	pop	ebp
; Line 166
	jmp	?UIClickedOSInfo@UOMediaPlayerV3@@AAEXXZ ; UOMediaPlayerV3::UIClickedOSInfo
$LN27@qt_static_:
; Line 171
	pop	ebp
	ret	0
$LN32@qt_static_:
	DD	$LN5@qt_static_
	DD	$LN6@qt_static_
	DD	$LN7@qt_static_
	DD	$LN8@qt_static_
	DD	$LN9@qt_static_
	DD	$LN10@qt_static_
	DD	$LN11@qt_static_
	DD	$LN12@qt_static_
	DD	$LN13@qt_static_
	DD	$LN14@qt_static_
	DD	$LN15@qt_static_
	DD	$LN16@qt_static_
	DD	$LN17@qt_static_
	DD	$LN18@qt_static_
	DD	$LN19@qt_static_
	DD	$LN20@qt_static_
	DD	$LN21@qt_static_
	DD	$LN22@qt_static_
	DD	$LN23@qt_static_
	DD	$LN24@qt_static_
	DD	$LN25@qt_static_
	DD	$LN26@qt_static_
?qt_static_metacall@UOMediaPlayerV3@@CAXPAVQObject@@W4Call@QMetaObject@@HPAPAX@Z ENDP ; UOMediaPlayerV3::qt_static_metacall
_TEXT	ENDS
; Function compile flags: /Ogtp
;	COMDAT ?qt_metacall@UOMediaPlayerV3@@UAEHW4Call@QMetaObject@@HPAPAX@Z
_TEXT	SEGMENT
_this$1$ = -4						; size = 4
__c$ = 8						; size = 4
__id$ = 12						; size = 4
__a$ = 16						; size = 4
?qt_metacall@UOMediaPlayerV3@@UAEHW4Call@QMetaObject@@HPAPAX@Z PROC ; UOMediaPlayerV3::qt_metacall, COMDAT
; _this$ = ecx
; File f:\uomediaplayerv3\uomediaplayerv3\release\moc\moc_uomediaplayerv3.cpp
; Line 197
	push	ebp
	mov	ebp, esp
	push	ecx
	push	ebx
; Line 198
	mov	ebx, DWORD PTR __a$[ebp]
	mov	eax, ecx
	push	esi
	push	edi
	mov	edi, DWORD PTR __c$[ebp]
	push	ebx
	push	DWORD PTR __id$[ebp]
	mov	DWORD PTR _this$1$[ebp], eax
	push	edi
	call	DWORD PTR __imp_?qt_metacall@QMainWindow@@UAEHW4Call@QMetaObject@@HPAPAX@Z
	mov	esi, eax
; Line 199
	test	esi, esi
	js	SHORT $LN1@qt_metacal
; Line 201
	test	edi, edi
	jne	SHORT $LN3@qt_metacal
; Line 202
	cmp	esi, 22					; 00000016H
	jge	SHORT $LN7@qt_metacal
; Line 203
	push	ebx
	push	esi
	push	edi
	push	DWORD PTR _this$1$[ebp]
	call	?qt_static_metacall@UOMediaPlayerV3@@CAXPAVQObject@@W4Call@QMetaObject@@HPAPAX@Z ; UOMediaPlayerV3::qt_static_metacall
	add	esp, 16					; 00000010H
; Line 210
	sub	esi, 22					; 00000016H
	mov	eax, esi
	pop	edi
; Line 211
	pop	esi
	pop	ebx
	mov	esp, ebp
	pop	ebp
	ret	12					; 0000000cH
$LN3@qt_metacal:
; Line 205
	cmp	edi, 12					; 0000000cH
	jne	SHORT $LN6@qt_metacal
; Line 206
	cmp	esi, 22					; 00000016H
	jge	SHORT $LN7@qt_metacal
; Line 207
	mov	eax, DWORD PTR [ebx]
	mov	DWORD PTR [eax], -1
$LN7@qt_metacal:
; Line 210
	sub	esi, 22					; 00000016H
$LN6@qt_metacal:
	mov	eax, esi
$LN1@qt_metacal:
	pop	edi
; Line 211
	pop	esi
	pop	ebx
	mov	esp, ebp
	pop	ebp
	ret	12					; 0000000cH
?qt_metacall@UOMediaPlayerV3@@UAEHW4Call@QMetaObject@@HPAPAX@Z ENDP ; UOMediaPlayerV3::qt_metacall
_TEXT	ENDS
; Function compile flags: /Ogtp
;	COMDAT ?qt_metacast@UOMediaPlayerV3@@UAEPAXPBD@Z
_TEXT	SEGMENT
__clname$ = 8						; size = 4
?qt_metacast@UOMediaPlayerV3@@UAEPAXPBD@Z PROC		; UOMediaPlayerV3::qt_metacast, COMDAT
; _this$ = ecx
; File f:\uomediaplayerv3\uomediaplayerv3\release\moc\moc_uomediaplayerv3.cpp
; Line 189
	push	ebp
	mov	ebp, esp
	push	esi
; Line 190
	mov	esi, DWORD PTR __clname$[ebp]
	push	edi
	mov	edi, ecx
	test	esi, esi
	jne	SHORT $LN2@qt_metacas
	pop	edi
	xor	eax, eax
; Line 194
	pop	esi
	pop	ebp
	ret	4
$LN2@qt_metacas:
; Line 191
	mov	eax, OFFSET ?qt_meta_stringdata_UOMediaPlayerV3@@3Uqt_meta_stringdata_UOMediaPlayerV3_t@@B+384
	mov	ecx, esi
	npad	3
$LL5@qt_metacas:
	mov	dl, BYTE PTR [ecx]
	cmp	dl, BYTE PTR [eax]
	jne	SHORT $LN6@qt_metacas
	test	dl, dl
	je	SHORT $LN7@qt_metacas
	mov	dl, BYTE PTR [ecx+1]
	cmp	dl, BYTE PTR [eax+1]
	jne	SHORT $LN6@qt_metacas
	add	ecx, 2
	add	eax, 2
	test	dl, dl
	jne	SHORT $LL5@qt_metacas
$LN7@qt_metacas:
	xor	eax, eax
	jmp	SHORT $LN8@qt_metacas
$LN6@qt_metacas:
	sbb	eax, eax
	or	eax, 1
$LN8@qt_metacas:
	test	eax, eax
	jne	SHORT $LN3@qt_metacas
; Line 192
	mov	eax, edi
	pop	edi
; Line 194
	pop	esi
	pop	ebp
	ret	4
$LN3@qt_metacas:
; Line 193
	push	esi
	mov	ecx, edi
	call	DWORD PTR __imp_?qt_metacast@QMainWindow@@UAEPAXPBD@Z
	pop	edi
; Line 194
	pop	esi
	pop	ebp
	ret	4
?qt_metacast@UOMediaPlayerV3@@UAEPAXPBD@Z ENDP		; UOMediaPlayerV3::qt_metacast
_TEXT	ENDS
; Function compile flags: /Ogtp
;	COMDAT ?metaObject@UOMediaPlayerV3@@UBEPBUQMetaObject@@XZ
_TEXT	SEGMENT
?metaObject@UOMediaPlayerV3@@UBEPBUQMetaObject@@XZ PROC	; UOMediaPlayerV3::metaObject, COMDAT
; _this$ = ecx
; File f:\uomediaplayerv3\uomediaplayerv3\release\moc\moc_uomediaplayerv3.cpp
; Line 185
	mov	ecx, DWORD PTR [ecx+4]
	cmp	DWORD PTR [ecx+24], 0
	je	SHORT $LN3@metaObject
	jmp	DWORD PTR __imp_?dynamicMetaObject@QObjectData@@QBEPAUQMetaObject@@XZ
$LN3@metaObject:
	mov	eax, OFFSET ?staticMetaObject@UOMediaPlayerV3@@2UQMetaObject@@B ; UOMediaPlayerV3::staticMetaObject
; Line 186
	ret	0
?metaObject@UOMediaPlayerV3@@UBEPBUQMetaObject@@XZ ENDP	; UOMediaPlayerV3::metaObject
_TEXT	ENDS
; Function compile flags: /Ogtp
;	COMDAT ??C?$QScopedPointer@VQObjectData@@U?$QScopedPointerDeleter@VQObjectData@@@@@@QBEPAVQObjectData@@XZ
_TEXT	SEGMENT
??C?$QScopedPointer@VQObjectData@@U?$QScopedPointerDeleter@VQObjectData@@@@@@QBEPAVQObjectData@@XZ PROC ; QScopedPointer<QObjectData,QScopedPointerDeleter<QObjectData> >::operator->, COMDAT
; _this$ = ecx
; File d:\qt\qt5.12.3\5.12.3\msvc2017\include\qtcore\qscopedpointer.h
; Line 118
	mov	eax, DWORD PTR [ecx]
; Line 119
	ret	0
??C?$QScopedPointer@VQObjectData@@U?$QScopedPointerDeleter@VQObjectData@@@@@@QBEPAVQObjectData@@XZ ENDP ; QScopedPointer<QObjectData,QScopedPointerDeleter<QObjectData> >::operator->
_TEXT	ENDS
END
